; Function Attrs: mustprogress uwtable
define hidden void @_ZNK4cvc58internal6theory15SubstitutionMap5printERSo(ptr noundef nonnull readonly align 8 captures(none) dereferenceable(256) %0, ptr noundef nonnull align 8 dereferenceable(8) %1) local_unnamed_addr #3 align 2 personality ptr @__gxx_personality_v0 {
  %3 = getelementptr inbounds nuw i8, ptr %0, i64 144
  %4 = load ptr, ptr %3, align 8, !tbaa !51, !noalias !142
  %invariant.gep = getelementptr i8, ptr %1, i64 240
  %.not16 = icmp eq ptr %4, null
  br i1 %.not16, label %select.unfold._crit_edge, label %_ZN4cvc58internallsERSoNS0_12NodeTemplateILb0EEE.exit

_ZN4cvc58internallsERSoNS0_12NodeTemplateILb0EEE.exit: ; preds = %2, %_ZNKSt9basic_iosIcSt11char_traitsIcEE5widenEc.exit.i
  %.sroa.012.017 = phi ptr [ %26, %_ZNKSt9basic_iosIcSt11char_traitsIcEE5widenEc.exit.i ], [ %4, %2 ]
  %5 = getelementptr inbounds nuw i8, ptr %.sroa.012.017, i64 40
  %6 = load ptr, ptr %5, align 8, !tbaa !65
  tail call void @_ZNK4cvc58internal4expr9NodeValue8toStreamERSo(ptr noundef nonnull align 8 dereferenceable(24) %6, ptr noundef nonnull align 8 dereferenceable(8) %1)
  %7 = tail call noundef nonnull align 8 dereferenceable(8) ptr @_ZSt16__ostream_insertIcSt11char_traitsIcEERSt13basic_ostreamIT_T0_ES6_PKS3_l(ptr noundef nonnull align 8 dereferenceable(8) %1, ptr noundef nonnull @.str.4, i64 noundef 4)
  %8 = getelementptr inbounds nuw i8, ptr %.sroa.012.017, i64 48
  %9 = load ptr, ptr %8, align 8, !tbaa !65
  tail call void @_ZNK4cvc58internal4expr9NodeValue8toStreamERSo(ptr noundef nonnull align 8 dereferenceable(24) %9, ptr noundef nonnull align 8 dereferenceable(8) %1)
  %10 = load ptr, ptr %1, align 8, !tbaa !3
  %11 = getelementptr i8, ptr %10, i64 -24
  %12 = load i64, ptr %11, align 8
  %gep = getelementptr i8, ptr %invariant.gep, i64 %12
  %13 = load ptr, ptr %gep, align 8, !tbaa !145
  %.not.i.i.i = icmp eq ptr %13, null
  br i1 %.not.i.i.i, label %.noexc, label %_ZSt13__check_facetISt5ctypeIcEERKT_PS3_.exit.i.i

.noexc:                                           ; preds = %_ZN4cvc58internallsERSoNS0_12NodeTemplateILb0EEE.exit
  tail call void @_ZSt16__throw_bad_castv() #26
  unreachable

_ZSt13__check_facetISt5ctypeIcEERKT_PS3_.exit.i.i: ; preds = %_ZN4cvc58internallsERSoNS0_12NodeTemplateILb0EEE.exit
  %14 = getelementptr inbounds nuw i8, ptr %13, i64 56
  %15 = load i8, ptr %14, align 8, !tbaa !160
  %.not.i1.i.i = icmp eq i8 %15, 0
  br i1 %.not.i1.i.i, label %.noexc6, label %16

16:                                               ; preds = %_ZSt13__check_facetISt5ctypeIcEERKT_PS3_.exit.i.i
  %17 = getelementptr inbounds nuw i8, ptr %13, i64 67
  %18 = load i8, ptr %17, align 1, !tbaa !166
  br label %_ZNKSt9basic_iosIcSt11char_traitsIcEE5widenEc.exit.i

.noexc6:                                          ; preds = %_ZSt13__check_facetISt5ctypeIcEERKT_PS3_.exit.i.i
  tail call void @_ZNKSt5ctypeIcE13_M_widen_initEv(ptr noundef nonnull align 8 dereferenceable(570) %13)
  %19 = load ptr, ptr %13, align 8, !tbaa !3
  %20 = getelementptr inbounds nuw i8, ptr %19, i64 48
  %21 = load ptr, ptr %20, align 8
  %22 = tail call noundef signext i8 %21(ptr noundef nonnull align 8 dereferenceable(570) %13, i8 noundef signext 10)
  br label %_ZNKSt9basic_iosIcSt11char_traitsIcEE5widenEc.exit.i

_ZNKSt9basic_iosIcSt11char_traitsIcEE5widenEc.exit.i: ; preds = %.noexc6, %16
  %.0.i.i.i = phi i8 [ %18, %16 ], [ %22, %.noexc6 ]
  %23 = tail call noundef nonnull align 8 dereferenceable(8) ptr @_ZNSo3putEc(ptr noundef nonnull align 8 dereferenceable(8) %1, i8 noundef signext %.0.i.i.i)
  %24 = tail call noundef nonnull align 8 dereferenceable(8) ptr @_ZNSo5flushEv(ptr noundef nonnull align 8 dereferenceable(8) %23)
  %25 = getelementptr inbounds nuw i8, ptr %.sroa.012.017, i64 72
  %26 = load ptr, ptr %25, align 8, !tbaa !55
  %27 = getelementptr inbounds nuw i8, ptr %.sroa.012.017, i64 56
  %28 = load ptr, ptr %27, align 8, !tbaa !61
  %29 = getelementptr inbounds nuw i8, ptr %28, i64 96
  %30 = load ptr, ptr %29, align 8, !tbaa !51
  %31 = icmp eq ptr %26, %30
  %.not18 = icmp eq ptr %26, null
  %.not = or i1 %31, %.not18
  br i1 %.not, label %select.unfold._crit_edge, label %_ZN4cvc58internallsERSoNS0_12NodeTemplateILb0EEE.exit

select.unfold._crit_edge:                         ; preds = %_ZNKSt9basic_iosIcSt11char_traitsIcEE5widenEc.exit.i, %2
  ret void
}